target datalayout = "e-m:e-p270:32:32-p271:32:32-p272:64:64-i64:64-i128:128-f80:128-n8:16:32:64-S128"
target triple = "x86_64-pc-linux-gnu"

%"class.cv::Matx" = type { [4 x double] }

; Function Attrs: mustprogress nounwind uwtable
define linkonce_odr hidden noundef zeroext i16 @_ZNSt14numeric_limitsItE3maxEv() #8 comdat align 2 {
  ret i16 -1
}

; Function Attrs: mustprogress nounwind uwtable
define linkonce_odr hidden noundef zeroext i16 @_ZNSt14numeric_limitsItE3minEv() #8 comdat align 2 {
  ret i16 0
}

; Function Attrs: alwaysinline mustprogress nounwind uwtable
define internal noundef zeroext i16 @_ZN2cv4gapi3ownL8saturateItivEET_T0_(i32 noundef %0) #15 {
  %2 = alloca i32, align 4
  store i32 %0, ptr %2, align 4, !tbaa !20
  %3 = load i32, ptr %2, align 4, !tbaa !20
  %4 = call noundef zeroext i16 @_ZNSt14numeric_limitsItE3minEv() #3
  %5 = zext i16 %4 to i32
  %6 = icmp slt i32 %3, %5
  br i1 %6, label %7, label %9

7:                                                ; preds = %1
  %8 = call noundef zeroext i16 @_ZNSt14numeric_limitsItE3minEv() #3
  br label %21

9:                                                ; preds = %1
  %10 = load i32, ptr %2, align 4, !tbaa !20
  %11 = call noundef zeroext i16 @_ZNSt14numeric_limitsItE3maxEv() #3
  %12 = zext i16 %11 to i32
  %13 = icmp sgt i32 %10, %12
  br i1 %13, label %14, label %16

14:                                               ; preds = %9
  %15 = call noundef zeroext i16 @_ZNSt14numeric_limitsItE3maxEv() #3
  br label %19

16:                                               ; preds = %9
  %17 = load i32, ptr %2, align 4, !tbaa !20
  %18 = trunc i32 %17 to i16
  br label %19

19:                                               ; preds = %16, %14
  %20 = phi i16 [ %15, %14 ], [ %18, %16 ]
  br label %21

21:                                               ; preds = %19, %7
  %22 = phi i16 [ %8, %7 ], [ %20, %19 ]
  ret i16 %22
}

; Function Attrs: alwaysinline mustprogress uwtable
define internal noundef zeroext i16 @_ZN2cv4gapi3ownL8saturateItdPFddETnNSt9enable_ifIXaasr3std11is_integralIT_EE5valuesr3std17is_floating_pointIT0_EE5valueEbE4typeELb1EEES6_S7_T1_(double noundef %0, ptr noundef %1) #14 {
  %3 = alloca double, align 8
  %4 = alloca ptr, align 8
  %5 = alloca i32, align 4
  store double %0, ptr %3, align 8, !tbaa !16
  store ptr %1, ptr %4, align 8, !tbaa !53
  call void @llvm.lifetime.start.p0(i64 4, ptr %5) #3
  %6 = load ptr, ptr %4, align 8, !tbaa !53
  %7 = load double, ptr %3, align 8, !tbaa !16
  %8 = call noundef double %6(double noundef %7)
  %9 = fptosi double %8 to i32
  store i32 %9, ptr %5, align 4, !tbaa !20
  %10 = load i32, ptr %5, align 4, !tbaa !20
  %11 = call noundef zeroext i16 @_ZN2cv4gapi3ownL8saturateItivEET_T0_(i32 noundef %10)
  call void @llvm.lifetime.end.p0(i64 4, ptr %5) #3
  ret i16 %11
}

; Function Attrs: inlinehint mustprogress nounwind uwtable
define linkonce_odr hidden noundef nonnull align 8 dereferenceable(8) ptr @_ZN2cv3VecIdLi4EEixEi(ptr noundef nonnull align 8 dereferenceable(32) %0, i32 noundef %1) #5 comdat align 2 {
  %3 = alloca ptr, align 8
  %4 = alloca i32, align 4
  store ptr %0, ptr %3, align 8, !tbaa !239
  store i32 %1, ptr %4, align 4, !tbaa !20
  %5 = load ptr, ptr %3, align 8
  %6 = getelementptr inbounds nuw %"class.cv::Matx", ptr %5, i32 0, i32 0
  %7 = load i32, ptr %4, align 4, !tbaa !20
  %8 = sext i32 %7 to i64
  %9 = getelementptr inbounds [4 x double], ptr %6, i64 0, i64 %8
  ret ptr %9
}

; Function Attrs: mustprogress nounwind uwtable
define linkonce_odr hidden void @_ZN2cv4util23suppress_unused_warningIbEEvRKT_(ptr noundef nonnull align 1 dereferenceable(1) %0) #8 comdat {
  %2 = alloca ptr, align 8
  store ptr %0, ptr %2, align 8, !tbaa !103
  ret void
}

; Function Attrs: mustprogress uwtable
define internal void @_ZN2cv4gapi12_GLOBAL__N_118fillConstBorderRowItEEvPhiiiNS_7Scalar_IdEE(ptr noundef %0, i32 noundef %1, i32 noundef %2, i32 noundef %3, ptr noundef %4) #4 {
  %6 = alloca ptr, align 8
  %7 = alloca i32, align 4
  %8 = alloca i32, align 4
  %9 = alloca i32, align 4
  %10 = alloca ptr, align 8
  %11 = alloca i8, align 1
  %12 = alloca ptr, align 8
  %13 = alloca ptr, align 8
  %14 = alloca i32, align 4
  %15 = alloca i32, align 4
  %16 = alloca i32, align 4
  store ptr %0, ptr %6, align 8, !tbaa !29
  store i32 %1, ptr %7, align 4, !tbaa !20
  store i32 %2, ptr %8, align 4, !tbaa !20
  store i32 %3, ptr %9, align 4, !tbaa !20
  store ptr %4, ptr %10, align 8, !tbaa !14
  call void @llvm.lifetime.start.p0(i64 1, ptr %11) #3
  store i8 0, ptr %11, align 1, !tbaa !102
  call void @_ZN2cv4util23suppress_unused_warningIbEEvRKT_(ptr noundef nonnull align 1 dereferenceable(1) %11)
  call void @llvm.lifetime.end.p0(i64 1, ptr %11) #3
  call void @llvm.lifetime.start.p0(i64 8, ptr %12) #3
  %17 = load ptr, ptr %6, align 8, !tbaa !29
  store ptr %17, ptr %12, align 8, !tbaa !225
  call void @llvm.lifetime.start.p0(i64 8, ptr %13) #3
  %18 = load ptr, ptr %12, align 8, !tbaa !225
  %19 = load i32, ptr %7, align 4, !tbaa !20
  %20 = load i32, ptr %9, align 4, !tbaa !20
  %21 = sub nsw i32 %19, %20
  %22 = load i32, ptr %8, align 4, !tbaa !20
  %23 = mul nsw i32 %21, %22
  %24 = sext i32 %23 to i64
  %25 = getelementptr inbounds i16, ptr %18, i64 %24
  store ptr %25, ptr %13, align 8, !tbaa !225
  call void @llvm.lifetime.start.p0(i64 4, ptr %14) #3
  store i32 0, ptr %14, align 4, !tbaa !20
  br label %26

26:                                               ; preds = %66, %5
  %27 = load i32, ptr %14, align 4, !tbaa !20
  %28 = load i32, ptr %9, align 4, !tbaa !20
  %29 = icmp slt i32 %27, %28
  br i1 %29, label %31, label %30

30:                                               ; preds = %26
  store i32 2, ptr %15, align 4
  call void @llvm.lifetime.end.p0(i64 4, ptr %14) #3
  br label %69

31:                                               ; preds = %26
  call void @llvm.lifetime.start.p0(i64 4, ptr %16) #3
  store i32 0, ptr %16, align 4, !tbaa !20
  br label %32

32:                                               ; preds = %62, %31
  %33 = load i32, ptr %16, align 4, !tbaa !20
  %34 = load i32, ptr %8, align 4, !tbaa !20
  %35 = icmp slt i32 %33, %34
  br i1 %35, label %37, label %36

36:                                               ; preds = %32
  store i32 5, ptr %15, align 4
  call void @llvm.lifetime.end.p0(i64 4, ptr %16) #3
  br label %65

37:                                               ; preds = %32
  %38 = load i32, ptr %16, align 4, !tbaa !20
  %39 = call noundef nonnull align 8 dereferenceable(8) ptr @_ZN2cv3VecIdLi4EEixEi(ptr noundef nonnull align 8 dereferenceable(32) %4, i32 noundef %38)
  %40 = load double, ptr %39, align 8, !tbaa !16
  %41 = call noundef zeroext i16 @_ZN2cv4gapi3ownL8saturateItdPFddETnNSt9enable_ifIXaasr3std11is_integralIT_EE5valuesr3std17is_floating_pointIT0_EE5valueEbE4typeELb1EEES6_S7_T1_(double noundef %40, ptr noundef @_ZN2cv4gapi3own6rounddEd)
  %42 = load ptr, ptr %12, align 8, !tbaa !225
  %43 = load i32, ptr %14, align 4, !tbaa !20
  %44 = load i32, ptr %8, align 4, !tbaa !20
  %45 = mul nsw i32 %43, %44
  %46 = load i32, ptr %16, align 4, !tbaa !20
  %47 = add nsw i32 %45, %46
  %48 = sext i32 %47 to i64
  %49 = getelementptr inbounds i16, ptr %42, i64 %48
  store i16 %41, ptr %49, align 2, !tbaa !227
  %50 = load i32, ptr %16, align 4, !tbaa !20
  %51 = call noundef nonnull align 8 dereferenceable(8) ptr @_ZN2cv3VecIdLi4EEixEi(ptr noundef nonnull align 8 dereferenceable(32) %4, i32 noundef %50)
  %52 = load double, ptr %51, align 8, !tbaa !16
  %53 = call noundef zeroext i16 @_ZN2cv4gapi3ownL8saturateItdPFddETnNSt9enable_ifIXaasr3std11is_integralIT_EE5valuesr3std17is_floating_pointIT0_EE5valueEbE4typeELb1EEES6_S7_T1_(double noundef %52, ptr noundef @_ZN2cv4gapi3own6rounddEd)
  %54 = load ptr, ptr %13, align 8, !tbaa !225
  %55 = load i32, ptr %14, align 4, !tbaa !20
  %56 = load i32, ptr %8, align 4, !tbaa !20
  %57 = mul nsw i32 %55, %56
  %58 = load i32, ptr %16, align 4, !tbaa !20
  %59 = add nsw i32 %57, %58
  %60 = sext i32 %59 to i64
  %61 = getelementptr inbounds i16, ptr %54, i64 %60
  store i16 %53, ptr %61, align 2, !tbaa !227
  br label %62

62:                                               ; preds = %37
  %63 = load i32, ptr %16, align 4, !tbaa !20
  %64 = add nsw i32 %63, 1
  store i32 %64, ptr %16, align 4, !tbaa !20
  br label %32, !llvm.loop !231

65:                                               ; preds = %36
  br label %66

66:                                               ; preds = %65
  %67 = load i32, ptr %14, align 4, !tbaa !20
  %68 = add nsw i32 %67, 1
  store i32 %68, ptr %14, align 4, !tbaa !20
  br label %26, !llvm.loop !232

69:                                               ; preds = %30
  call void @llvm.lifetime.end.p0(i64 8, ptr %13) #3
  call void @llvm.lifetime.end.p0(i64 8, ptr %12) #3
  ret void
}